(i__main__
LogFile
p0
(dp1
S'_installed_files'
p2
(dp3
S'../../../CommonNtuple/MuonMomentumCorrections/i686-slc5-gcc43-opt/libMuonMomentumCorrectionsDict.so.debug'
p4
S'../../../InstallArea/i686-slc5-gcc43-opt/lib/libMuonMomentumCorrectionsDict.so.debug'
p5
sS'../../../CommonNtuple/MuonMomentumCorrections/i686-slc5-gcc43-opt/libMuonMomentumCorrections.so'
p6
S'../../../InstallArea/i686-slc5-gcc43-opt/lib/libMuonMomentumCorrections.so'
p7
sS'../../../PhysicsAnalysis/MuonID/MuonIDAnalysis/MuonMomentumCorrections/i686-slc5-gcc43-opt/libMuonMomentumCorrections.so.debug'
p8
S'../../../../../InstallArea/i686-slc5-gcc43-opt/lib/libMuonMomentumCorrections.so.debug'
p9
sS'../../../PhysicsAnalysis/MuonID/MuonIDAnalysis/MuonMomentumCorrections/i686-slc5-gcc43-opt/libMuonMomentumCorrections.so'
p10
S'../../../../../InstallArea/i686-slc5-gcc43-opt/lib/libMuonMomentumCorrections.so'
p11
sS'../../../PhysicsAnalysis/MuonID/MuonIDAnalysis/MuonMomentumCorrections/i686-slc5-gcc43-opt/libMuonMomentumCorrectionsDict.so.debug'
p12
S'../../../../../InstallArea/i686-slc5-gcc43-opt/lib/libMuonMomentumCorrectionsDict.so.debug'
p13
sS'../../../CommonNtuple/MuonMomentumCorrections/i686-slc5-gcc43-opt/libMuonMomentumCorrections.so.debug'
p14
S'../../../InstallArea/i686-slc5-gcc43-opt/lib/libMuonMomentumCorrections.so.debug'
p15
sS'../../../CommonNtuple/MuonMomentumCorrections/i686-slc5-gcc43-opt/libMuonMomentumCorrectionsDict.so'
p16
S'../../../InstallArea/i686-slc5-gcc43-opt/lib/libMuonMomentumCorrectionsDict.so'
p17
sS'../../../PhysicsAnalysis/MuonID/MuonIDAnalysis/MuonMomentumCorrections/i686-slc5-gcc43-opt/libMuonMomentumCorrectionsDict.so'
p18
S'../../../../../InstallArea/i686-slc5-gcc43-opt/lib/libMuonMomentumCorrectionsDict.so'
p19
ssb.