(i__main__
LogFile
p0
(dp1
S'_installed_files'
p2
(dp3
S'../../../CommonNtuple/MuonMomentumCorrections/i686-slc5-gcc43-opt/libMuonMomentumCorrectionsDict.so.debug'
p4
S'../../../InstallArea/i686-slc5-gcc43-opt/lib/libMuonMomentumCorrectionsDict.so.debug'
p5
sS'../../../MuonSlimming/J0-5/MuonMomentumCorrections/i686-slc5-gcc43-opt/libMuonMomentumCorrections.so.debug'
p6
S'../../../../InstallArea/i686-slc5-gcc43-opt/lib/libMuonMomentumCorrections.so.debug'
p7
sS'../../../CommonNtuple/MuonMomentumCorrections/i686-slc5-gcc43-opt/libMuonMomentumCorrections.so'
p8
S'../../../InstallArea/i686-slc5-gcc43-opt/lib/libMuonMomentumCorrections.so'
p9
sS'../../../PhysicsAnalysis/MuonID/MuonIDAnalysis/MuonMomentumCorrections/i686-slc5-gcc43-opt/libMuonMomentumCorrectionsDict.so.debug'
p10
S'../../../../../InstallArea/i686-slc5-gcc43-opt/lib/libMuonMomentumCorrectionsDict.so.debug'
p11
sS'../../../PhysicsAnalysis/MuonID/MuonIDAnalysis/MuonMomentumCorrections/i686-slc5-gcc43-opt/libMuonMomentumCorrections.so.debug'
p12
S'../../../../../InstallArea/i686-slc5-gcc43-opt/lib/libMuonMomentumCorrections.so.debug'
p13
sS'../../../MuonSlimming/J0-5/MuonMomentumCorrections/i686-slc5-gcc43-opt/libMuonMomentumCorrectionsDict.so'
p14
S'../../../../InstallArea/i686-slc5-gcc43-opt/lib/libMuonMomentumCorrectionsDict.so'
p15
sS'../../../MuonSlimming/J0-5/MuonMomentumCorrections/i686-slc5-gcc43-opt/libMuonMomentumCorrectionsDict.so.debug'
p16
S'../../../../InstallArea/i686-slc5-gcc43-opt/lib/libMuonMomentumCorrectionsDict.so.debug'
p17
sS'../../../PhysicsAnalysis/MuonID/MuonIDAnalysis/MuonMomentumCorrections/i686-slc5-gcc43-opt/libMuonMomentumCorrections.so'
p18
S'../../../../../InstallArea/i686-slc5-gcc43-opt/lib/libMuonMomentumCorrections.so'
p19
sS'../../../MuonSlimming/J0-5/MuonMomentumCorrections/i686-slc5-gcc43-opt/libMuonMomentumCorrections.so'
p20
S'../../../../InstallArea/i686-slc5-gcc43-opt/lib/libMuonMomentumCorrections.so'
p21
sS'../../../CommonNtuple/MuonMomentumCorrections/i686-slc5-gcc43-opt/libMuonMomentumCorrections.so.debug'
p22
S'../../../InstallArea/i686-slc5-gcc43-opt/lib/libMuonMomentumCorrections.so.debug'
p23
sS'../../../CommonNtuple/MuonMomentumCorrections/i686-slc5-gcc43-opt/libMuonMomentumCorrectionsDict.so'
p24
S'../../../InstallArea/i686-slc5-gcc43-opt/lib/libMuonMomentumCorrectionsDict.so'
p25
sS'../../../PhysicsAnalysis/MuonID/MuonIDAnalysis/MuonMomentumCorrections/i686-slc5-gcc43-opt/libMuonMomentumCorrectionsDict.so'
p26
S'../../../../../InstallArea/i686-slc5-gcc43-opt/lib/libMuonMomentumCorrectionsDict.so'
p27
ssb.