(i__main__
LogFile
p0
(dp1
S'_installed_files'
p2
(dp3
S'../../../MuonSlimming/WmunuPowPyMonteCarlo/MuonMomentumCorrections/x86_64-slc6-gcc47-opt/libMuonMomentumCorrectionsDict.so.debug'
p4
S'../../../../InstallArea/x86_64-slc6-gcc47-opt/lib/libMuonMomentumCorrectionsDict.so.debug'
p5
sS'../../../MuonSlimming/WmunuPowPyMonteCarlo/MuonMomentumCorrections/x86_64-slc6-gcc47-opt/libMuonMomentumCorrections.so.debug'
p6
S'../../../../InstallArea/x86_64-slc6-gcc47-opt/lib/libMuonMomentumCorrections.so.debug'
p7
sS'../../../MuonSlimming/WmunuPowPyMonteCarlo/MuonMomentumCorrections/x86_64-slc6-gcc47-opt/libMuonMomentumCorrections.so'
p8
S'../../../../InstallArea/x86_64-slc6-gcc47-opt/lib/libMuonMomentumCorrections.so'
p9
sS'../../../MuonSlimming/WmunuPowPyMonteCarlo/MuonMomentumCorrections/x86_64-slc6-gcc47-opt/libMuonMomentumCorrectionsDict.so'
p10
S'../../../../InstallArea/x86_64-slc6-gcc47-opt/lib/libMuonMomentumCorrectionsDict.so'
p11
ssb.