(i__main__
LogFile
p0
(dp1
S'_installed_files'
p2
(dp3
S'../../../CommonNtuple/MuonMomentumCorrections/i686-slc5-gcc43-opt/libMuonMomentumCorrectionsDict.so.debug'
p4
S'../../../InstallArea/i686-slc5-gcc43-opt/lib/libMuonMomentumCorrectionsDict.so.debug'
p5
sS'../../../CommonNtuple/MuonMomentumCorrections/i686-slc5-gcc43-opt/libMuonMomentumCorrections.so'
p6
S'../../../InstallArea/i686-slc5-gcc43-opt/lib/libMuonMomentumCorrections.so'
p7
sS'../../../PhysicsAnalysis/MuonID/MuonIDAnalysis/MuonMomentumCorrections/i686-slc5-gcc43-opt/libMuonMomentumCorrections.so.debug'
p8
S'../../../../../InstallArea/i686-slc5-gcc43-opt/lib/libMuonMomentumCorrections.so.debug'
p9
sS'../../../MuonSlimming/WmunuMonteCarlo/MuonMomentumCorrections/i686-slc5-gcc43-opt/libMuonMomentumCorrections.so.debug'
p10
S'../../../../InstallArea/i686-slc5-gcc43-opt/lib/libMuonMomentumCorrections.so.debug'
p11
sS'../../../MuonSlimming/WmunuMonteCarlo/MuonMomentumCorrections/i686-slc5-gcc43-opt/libMuonMomentumCorrectionsDict.so'
p12
S'../../../../InstallArea/i686-slc5-gcc43-opt/lib/libMuonMomentumCorrectionsDict.so'
p13
sS'../../../MuonSlimming/WmunuMonteCarlo/MuonMomentumCorrections/i686-slc5-gcc43-opt/libMuonMomentumCorrections.so'
p14
S'../../../../InstallArea/i686-slc5-gcc43-opt/lib/libMuonMomentumCorrections.so'
p15
sS'../../../PhysicsAnalysis/MuonID/MuonIDAnalysis/MuonMomentumCorrections/i686-slc5-gcc43-opt/libMuonMomentumCorrections.so'
p16
S'../../../../../InstallArea/i686-slc5-gcc43-opt/lib/libMuonMomentumCorrections.so'
p17
sS'../../../PhysicsAnalysis/MuonID/MuonIDAnalysis/MuonMomentumCorrections/i686-slc5-gcc43-opt/libMuonMomentumCorrectionsDict.so.debug'
p18
S'../../../../../InstallArea/i686-slc5-gcc43-opt/lib/libMuonMomentumCorrectionsDict.so.debug'
p19
sS'../../../CommonNtuple/MuonMomentumCorrections/i686-slc5-gcc43-opt/libMuonMomentumCorrections.so.debug'
p20
S'../../../InstallArea/i686-slc5-gcc43-opt/lib/libMuonMomentumCorrections.so.debug'
p21
sS'../../../CommonNtuple/MuonMomentumCorrections/i686-slc5-gcc43-opt/libMuonMomentumCorrectionsDict.so'
p22
S'../../../InstallArea/i686-slc5-gcc43-opt/lib/libMuonMomentumCorrectionsDict.so'
p23
sS'../../../PhysicsAnalysis/MuonID/MuonIDAnalysis/MuonMomentumCorrections/i686-slc5-gcc43-opt/libMuonMomentumCorrectionsDict.so'
p24
S'../../../../../InstallArea/i686-slc5-gcc43-opt/lib/libMuonMomentumCorrectionsDict.so'
p25
sS'../../../MuonSlimming/WmunuMonteCarlo/MuonMomentumCorrections/i686-slc5-gcc43-opt/libMuonMomentumCorrectionsDict.so.debug'
p26
S'../../../../InstallArea/i686-slc5-gcc43-opt/lib/libMuonMomentumCorrectionsDict.so.debug'
p27
ssb.